; Function Attrs: mustprogress uwtable
define noundef i32 @_ZNK6icu_7512RegexPattern5splitEP5UTextPS2_iR10UErrorCode(ptr noundef nonnull align 8 dereferenceable(200) %this, ptr noundef %input, ptr noundef %dest, i32 noundef %destCapacity, ptr noundef nonnull align 4 dereferenceable(4) %status) unnamed_addr #1 align 2 personality ptr @__gxx_personality_v0 {
entry:
  %m = alloca %"class.icu_75::RegexMatcher", align 8
  %0 = load i32, ptr %status, align 4
  %cmp.i = icmp slt i32 %0, 1
  br i1 %cmp.i, label %if.end, label %return

if.end:                                           ; preds = %entry
  call void @_ZN6icu_7512RegexMatcherC1EPKNS_12RegexPatternE(ptr noundef nonnull align 8 dereferenceable(336) %m, ptr noundef nonnull %this)
  %fDeferredStatus = getelementptr inbounds i8, ptr %m, i64 316
  %1 = load i32, ptr %fDeferredStatus, align 4
  %cmp.i2 = icmp sgt i32 %1, 0
  br i1 %cmp.i2, label %if.end7, label %if.then4

if.then4:                                         ; preds = %if.end
  %call6 = invoke noundef i32 @_ZN6icu_7512RegexMatcher5splitEP5UTextPS2_iR10UErrorCode(ptr noundef nonnull align 8 dereferenceable(336) %m, ptr noundef %input, ptr noundef %dest, i32 noundef %destCapacity, ptr noundef nonnull align 4 dereferenceable(4) %status)
          to label %if.end7 unwind label %lpad

lpad:                                             ; preds = %if.then4
  %2 = landingpad { ptr, i32 }
          cleanup
  call void @_ZN6icu_7512RegexMatcherD1Ev(ptr noundef nonnull align 8 dereferenceable(336) %m) #11
  resume { ptr, i32 } %2

if.end7:                                          ; preds = %if.then4, %if.end
  %r.0 = phi i32 [ 0, %if.end ], [ %call6, %if.then4 ]
  call void @_ZN6icu_7512RegexMatcherD1Ev(ptr noundef nonnull align 8 dereferenceable(336) %m) #11
  br label %return

return:                                           ; preds = %entry, %if.end7
  %retval.0 = phi i32 [ %r.0, %if.end7 ], [ 0, %entry ]
  ret i32 %retval.0
}